; Function Attrs: mustprogress nounwind uwtable
define hidden noundef ptr @_ZN11OptoRuntime13generate_stubEP5ciEnvPFPK8TypeFuncvEPhPKcibb(ptr noundef %0, ptr noundef %1, ptr noundef %2, ptr noundef %3, i32 noundef %4, i1 noundef zeroext %5, i1 noundef zeroext %6) local_unnamed_addr #0 align 2 {
  %8 = alloca %class.Compile, align 8
  %9 = load ptr, ptr getelementptr inbounds (i8, ptr @_ZN13CompileBroker10_compilersE, i64 8), align 8
  %10 = tail call noundef ptr @_ZN15DirectivesStack19getDefaultDirectiveEP16AbstractCompiler(ptr noundef %9) #12
  %11 = tail call align 8 ptr @llvm.threadlocal.address.p0(ptr align 8 @_ZN6Thread12_thr_currentE)
  %12 = load ptr, ptr %11, align 8
  %13 = getelementptr inbounds i8, ptr %12, i64 800
  %14 = load ptr, ptr %13, align 8
  %15 = getelementptr inbounds i8, ptr %14, i64 24
  %16 = load ptr, ptr %15, align 8
  %17 = getelementptr inbounds i8, ptr %14, i64 32
  %18 = load ptr, ptr %17, align 8
  %19 = getelementptr inbounds i8, ptr %14, i64 40
  %20 = load ptr, ptr %19, align 8
  %21 = getelementptr inbounds i8, ptr %14, i64 8
  %22 = load i64, ptr %21, align 8
  call void @_ZN7CompileC1EP5ciEnvPFPK8TypeFuncvEPhPKcibbP12DirectiveSet(ptr noundef nonnull align 8 dereferenceable(2316) %8, ptr noundef %0, ptr noundef %1, ptr noundef %2, ptr noundef %3, i32 noundef %4, i1 noundef zeroext %5, i1 noundef zeroext %6, ptr noundef %10) #12
  call void @_ZN15DirectivesStack7releaseEP12DirectiveSet(ptr noundef %10) #12
  %23 = getelementptr inbounds i8, ptr %8, i64 80
  %24 = load ptr, ptr %23, align 8
  call void @_ZN7CompileD1Ev(ptr noundef nonnull align 8 dereferenceable(2316) %8) #12
  %25 = load ptr, ptr %16, align 8
  %.not.i.i.i.i = icmp eq ptr %25, null
  br i1 %.not.i.i.i.i, label %27, label %26

26:                                               ; preds = %7
  call void @_ZN5Arena17set_size_in_bytesEm(ptr noundef nonnull align 8 dereferenceable(48) %14, i64 noundef %22) #12
  call void @_ZN5Chunk9next_chopEPS_(ptr noundef nonnull %16) #12
  br label %27

27:                                               ; preds = %26, %7
  %28 = load ptr, ptr %17, align 8
  %.not8.i.i.i.i = icmp eq ptr %28, %18
  br i1 %.not8.i.i.i.i, label %_ZN12ResourceMarkD2Ev.exit, label %29

29:                                               ; preds = %27
  store ptr %16, ptr %15, align 8
  store ptr %18, ptr %17, align 8
  store ptr %20, ptr %19, align 8
  br label %_ZN12ResourceMarkD2Ev.exit

_ZN12ResourceMarkD2Ev.exit:                       ; preds = %27, %29
  ret ptr %24
}